; c64asm listing  (origin $0801, 319 bytes)

080D  4C 61 08          .basic start   ; needed once graphics.inc's own code (wait_frame,
0810  AD 12 D0          lda VIC_RASTER
0813  C9 FB             cmp #$fb
0815  D0 F9             bne wait_frame
0817  60                rts
0818  A5 04             lda xdir
081A  F0 0F             beq __local2_move_left
081C  E6 02             inc xpos
081E  A5 02             lda xpos
0820  C9 FA             cmp #XMAX
0822  D0 13             bne __local2_x_done
0824  A9 00             lda #0
0826  85 04             sta xdir             ; hit the right edge -- reverse
0828  4C 37 08          jmp __local2_x_done
082B  C6 02             dec xpos
082D  A5 02             lda xpos
082F  C9 18             cmp #XMIN
0831  D0 04             bne __local2_x_done
0833  A9 01             lda #1
0835  85 04             sta xdir             ; hit the left edge -- reverse
0837  A5 05             lda ydir
0839  F0 0F             beq __local2_move_up
083B  E6 03             inc ypos
083D  A5 03             lda ypos
083F  C9 DC             cmp #YMAX
0841  D0 13             bne __local2_y_done
0843  A9 00             lda #0
0845  85 05             sta ydir             ; hit the bottom edge -- reverse
0847  4C 56 08          jmp __local2_y_done
084A  C6 03             dec ypos
084C  A5 03             lda ypos
084E  C9 32             cmp #YMIN
0850  D0 04             bne __local2_y_done
0852  A9 01             lda #1
0854  85 05             sta ydir             ; hit the top edge -- reverse
0856  A5 02             lda xpos
0858  8D 00 D0          sta SPRITE0_X
085B  A5 03             lda ypos
085D  8D 01 D0          sta SPRITE0_Y
0860  60                rts
0861  AD 11 D0          lda VIC_CTRL1
0864  09 20             ora #%00100000        
0866  8D 11 D0          sta VIC_CTRL1
0869  AD 18 D0          lda VIC_MEMPTRS
086C  29 F0             and #%11110000        
086E  09 08             ora #((BITMAP) / 1024)   
0870  8D 18 D0          sta VIC_MEMPTRS
0873  A9 00             lda #<(BITMAP)
0875  85 FB             sta gfx_ptr
0877  A9 20             lda #>(BITMAP)
0879  85 FC             sta gfx_ptr+1
087B  A2 20             ldx #32
087D  A9 00             lda #$00
087F  A0 00             ldy #$00
0881  91 FB             sta (gfx_ptr),y
0883  C8                iny
0884  D0 FB             bne __local5_clear_byte
0886  E6 FC             inc gfx_ptr+1
0888  CA                dex
0889  D0 F4             bne __local5_clear_loop
088B  A9 00             lda #<SCREEN
088D  85 FB             sta gfx_ptr
088F  A9 04             lda #>SCREEN
0891  85 FC             sta gfx_ptr+1
0893  A2 04             ldx #4
0895  A9 16             lda #%00010110
0897  A0 00             ldy #$00
0899  91 FB             sta (gfx_ptr),y
089B  C8                iny
089C  D0 FB             bne __local6_fill_byte
089E  E6 FC             inc gfx_ptr+1
08A0  CA                dex
08A1  D0 F4             bne __local6_fill_loop
08A3  A9 06             lda #6               ; border matches the bitmap's background color
08A5  8D 20 D0          sta VIC_BORDER
08A8  A9 18             lda #XMIN
08AA  85 02             sta xpos
08AC  A9 32             lda #YMIN
08AE  85 03             sta ypos
08B0  A9 01             lda #1
08B2  85 04             sta xdir             ; start out moving right...
08B4  85 05             sta ydir             ; ...and down
08B6  A9 24             lda #((SPRITE_DATA) / 64)
08B8  8D F8 07          sta SPRITE_PTR0
08BB  A9 01             lda #1
08BD  8D 27 D0          sta SPRITE0_COLOR
08C0  A9 18             lda #XMIN
08C2  8D 00 D0          sta SPRITE0_X
08C5  A9 32             lda #YMIN
08C7  8D 01 D0          sta SPRITE0_Y
08CA  A9 01             lda #%00000001
08CC  8D 15 D0          sta SPRITE_ENABLE
08CF  20 10 08          jsr wait_frame
08D2  20 18 08          jsr sprite0_bounce_step
08D5  4C CF 08          jmp main_loop

Symbol table:
  BITMAP               = $2000
  CHRIN                = $FFCF
  CHROUT               = $FFD2
  CIA1_DDRA            = $DC02
  CIA1_DDRB            = $DC03
  CIA1_PRA             = $DC00
  CIA1_PRB             = $DC01
  SCREEN               = $0400
  SID_VOLUME           = $D418
  SPRITE0_COLOR        = $D027
  SPRITE0_X            = $D000
  SPRITE0_Y            = $D001
  SPRITE_DATA          = $0900
  SPRITE_ENABLE        = $D015
  SPRITE_PTR0          = $07F8
  VIC_BG0              = $D021
  VIC_BORDER           = $D020
  VIC_CTRL1            = $D011
  VIC_CTRL2            = $D016
  VIC_MEMPTRS          = $D018
  VIC_RASTER           = $D012
  VOICE1_AD            = $D405
  VOICE1_CTRL          = $D404
  VOICE1_FREQ_HI       = $D401
  VOICE1_FREQ_LO       = $D400
  VOICE1_SR            = $D406
  XMAX                 = $00FA
  XMIN                 = $0018
  YMAX                 = $00DC
  YMIN                 = $0032
  __local2_move_left   = $082B
  __local2_move_up     = $084A
  __local2_x_done      = $0837
  __local2_y_done      = $0856
  __local5_clear_byte  = $0881
  __local5_clear_loop  = $087F
  __local6_fill_byte   = $0899
  __local6_fill_loop   = $0897
  gfx_ptr              = $00FB
  main_loop            = $08CF
  sprite0_bounce_step  = $0818
  sprite_data          = $0900
  start                = $0861
  wait_frame           = $0810
  xdir                 = $0004
  xpos                 = $0002
  ydir                 = $0005
  ypos                 = $0003
